; Function Attrs: mustprogress nounwind uwtable
define dso_local void @_ZN4llvm9KnownBits19computeForSubBorrowERKS0_S0_S2_(ptr dead_on_unwind noalias nocapture writable sret(%"struct.llvm::KnownBits") align 8 %0, ptr noundef nonnull align 8 dereferenceable(32) %1, ptr noundef %2, ptr noundef nonnull readonly align 8 dereferenceable(32) %3) local_unnamed_addr #0 align 2 {
  %5 = getelementptr inbounds nuw i8, ptr %2, i64 16
  %6 = getelementptr inbounds nuw i8, ptr %2, i64 8
  %7 = load i32, ptr %6, align 8
  %8 = load i64, ptr %2, align 8
  %9 = load i64, ptr %5, align 8
  store i64 %9, ptr %2, align 8
  %10 = getelementptr inbounds i8, ptr %2, i64 24
  %11 = load i32, ptr %10, align 8
  store i32 %11, ptr %6, align 8
  store i64 %8, ptr %5, align 8
  store i32 %7, ptr %10, align 8
  %12 = getelementptr inbounds nuw i8, ptr %3, i64 16
  %13 = getelementptr inbounds i8, ptr %3, i64 24
  %14 = load i32, ptr %13, align 8
  %15 = icmp ult i32 %14, 65
  br i1 %15, label %16, label %19

16:                                               ; preds = %4
  %17 = load i64, ptr %12, align 8
  %18 = icmp eq i64 %17, 0
  br label %_ZNK4llvm5APInt12getBoolValueEv.exit

19:                                               ; preds = %4
  %20 = tail call noundef i32 @_ZNK4llvm5APInt25countLeadingZerosSlowCaseEv(ptr noundef nonnull align 8 dereferenceable(12) %12) #10
  %21 = icmp eq i32 %20, %14
  br label %_ZNK4llvm5APInt12getBoolValueEv.exit

_ZNK4llvm5APInt12getBoolValueEv.exit:             ; preds = %16, %19
  %.0.i.i = phi i1 [ %18, %16 ], [ %21, %19 ]
  %22 = getelementptr inbounds nuw i8, ptr %3, i64 8
  %23 = load i32, ptr %22, align 8
  %24 = icmp ult i32 %23, 65
  br i1 %24, label %25, label %28

25:                                               ; preds = %_ZNK4llvm5APInt12getBoolValueEv.exit
  %26 = load i64, ptr %3, align 8
  %27 = icmp eq i64 %26, 0
  br label %_ZNK4llvm5APInt12getBoolValueEv.exit4

28:                                               ; preds = %_ZNK4llvm5APInt12getBoolValueEv.exit
  %29 = tail call noundef i32 @_ZNK4llvm5APInt25countLeadingZerosSlowCaseEv(ptr noundef nonnull align 8 dereferenceable(12) %3) #10
  %30 = icmp eq i32 %29, %23
  br label %_ZNK4llvm5APInt12getBoolValueEv.exit4

_ZNK4llvm5APInt12getBoolValueEv.exit4:            ; preds = %25, %28
  %.0.i.i3 = phi i1 [ %27, %25 ], [ %30, %28 ]
  %31 = xor i1 %.0.i.i, true
  %32 = xor i1 %.0.i.i3, true
  tail call fastcc void @_ZL18computeForAddCarryRKN4llvm9KnownBitsES2_bb(ptr dead_on_unwind noalias writable align 8 %0, ptr noundef nonnull align 8 dereferenceable(32) %1, ptr noundef nonnull align 8 dereferenceable(32) %2, i1 noundef zeroext %31, i1 noundef zeroext %32)
  ret void
}